target datalayout = "e-m:e-p270:32:32-p271:32:32-p272:64:64-i64:64-i128:128-f80:128-n8:16:32:64-S128"
target triple = "x86_64-pc-linux-gnu"

%struct._zend_executor_globals = type { %struct._zval_struct, %struct._zval_struct, [32 x ptr], ptr, ptr, %struct._zend_array, %struct._zend_array, ptr, i32, i8, %struct._zval_struct, i32, ptr, ptr, ptr, ptr, ptr, ptr, i64, ptr, ptr, i32, ptr, i32, i64, i32, i32, i32, i8, i8, %struct.zend_atomic_bool_s, %struct.zend_atomic_bool_s, ptr, i64, ptr, ptr, %struct._zend_array, %struct._zend_array, i32, i8, %struct._zval_struct, %struct._zval_struct, %struct._zend_stack, %struct._zend_stack, %struct._zend_stack, ptr, i32, i32, i64, ptr, ptr, ptr, %struct._zend_objects_store, %struct._zend_lazy_objects_store, ptr, ptr, ptr, [3 x %struct._zend_op], ptr, i8, i8, i64, i32, i32, ptr, [16 x %struct._HashTableIterator], ptr, %union._zend_function, %struct._zend_op, %struct._zend_array, i64, %struct.zend_get_gc_buffer, ptr, ptr, ptr, i64, i8, i32, ptr, ptr, i64, %struct._zend_call_stack, i64, i64, %struct._zend_strtod_state, [6 x ptr] }
%struct.zend_atomic_bool_s = type { i8 }
%struct._zval_struct = type { %union._zend_value, %union.anon, %union.anon.2 }
%union._zend_value = type { i64 }
%union.anon = type { i32 }
%union.anon.2 = type { i32 }
%struct._zend_stack = type { i32, i32, i32, ptr }
%struct._zend_objects_store = type { ptr, i32, i32, i32 }
%struct._zend_lazy_objects_store = type { %struct._zend_array }
%struct._HashTableIterator = type { ptr, i32, i32 }
%union._zend_function = type { %struct._zend_op_array }
%struct._zend_op_array = type { i8, [3 x i8], i32, ptr, ptr, ptr, i32, i32, ptr, ptr, ptr, ptr, i32, ptr, i32, i32, i32, ptr, ptr, ptr, ptr, ptr, i32, i32, ptr, ptr, ptr, i32, i32, i32, i32, ptr, ptr, [6 x ptr] }
%struct._zend_op = type { ptr, %union._znode_op, %union._znode_op, %union._znode_op, i32, i32, i8, i8, i8, i8 }
%union._znode_op = type { i32 }
%struct._zend_array = type { %struct._zend_refcounted_h, %union.anon.4, i32, %union.anon.6, i32, i32, i32, i32, i64, ptr }
%struct._zend_refcounted_h = type { i32, %union.anon.3 }
%union.anon.3 = type { i32 }
%union.anon.4 = type { i32 }
%union.anon.6 = type { ptr }
%struct.zend_get_gc_buffer = type { ptr, ptr, ptr }
%struct._zend_call_stack = type { ptr, i64 }
%struct._zend_strtod_state = type { [8 x ptr], ptr, ptr }
%struct._zend_fcall_info_cache = type { ptr, ptr, ptr, ptr, ptr }
%struct._zend_llist = type { ptr, ptr, i64, i64, ptr, i8, ptr }
%struct._zend_execute_data = type { ptr, ptr, ptr, ptr, %struct._zval_struct, ptr, ptr, ptr, ptr }
%struct._php_sqlite3_db_object = type { i8, i8, ptr, ptr, ptr, %struct._zend_fcall_info_cache, %struct._zend_llist, %struct._zend_object }
%struct._zend_object = type { %struct._zend_refcounted_h, i32, i32, ptr, ptr, ptr, [1 x %struct._zval_struct] }
%struct._zend_string = type { %struct._zend_refcounted_h, i64, i64, [1 x i8] }
%struct._php_sqlite3_stmt_object = type { ptr, ptr, i8, ptr, %struct._zend_object }
%struct.anon.0 = type { i8, i8, %union.anon.1 }
%union.anon.1 = type { i16 }
%struct._zend_refcounted = type { %struct._zend_refcounted_h }

@executor_globals = external global %struct._zend_executor_globals, align 8
@.str.8 = private unnamed_addr constant [75 x i8] c"The SQLite3 object has not been correctly initialised or is already closed\00", align 1
@.str.21 = private unnamed_addr constant [32 x i8] c"Unable to prepare statement: %s\00", align 1
@php_sqlite3_sc_entry = internal global ptr null, align 8
@.str.41 = private unnamed_addr constant [3 x i8] c"OS\00", align 1

; Function Attrs: alwaysinline nounwind uwtable
define internal i32 @zend_gc_addref(ptr noundef %0) #8 {
  %2 = alloca ptr, align 8
  store ptr %0, ptr %2, align 8, !tbaa !206
  br label %3

3:                                                ; preds = %1
  br label %4

4:                                                ; preds = %3
  %5 = load ptr, ptr %2, align 8, !tbaa !206
  %6 = getelementptr inbounds nuw %struct._zend_refcounted_h, ptr %5, i32 0, i32 0
  %7 = load i32, ptr %6, align 4, !tbaa !208
  %8 = add i32 %7, 1
  store i32 %8, ptr %6, align 4, !tbaa !208
  ret i32 %8
}

; Function Attrs: alwaysinline nounwind uwtable
define internal i32 @zval_addref_p(ptr noundef %0) #8 {
  %2 = alloca ptr, align 8
  store ptr %0, ptr %2, align 8, !tbaa !9
  %3 = load ptr, ptr %2, align 8, !tbaa !9
  %4 = getelementptr inbounds nuw %struct._zval_struct, ptr %3, i32 0, i32 1
  %5 = getelementptr inbounds nuw %struct.anon.0, ptr %4, i32 0, i32 1
  %6 = load i8, ptr %5, align 1, !tbaa !13
  %7 = zext i8 %6 to i32
  %8 = icmp ne i32 %7, 0
  call void @llvm.assume(i1 %8)
  %9 = load ptr, ptr %2, align 8, !tbaa !9
  %10 = getelementptr inbounds nuw %struct._zval_struct, ptr %9, i32 0, i32 0
  %11 = load ptr, ptr %10, align 8, !tbaa !13
  %12 = getelementptr inbounds nuw %struct._zend_refcounted, ptr %11, i32 0, i32 0
  %13 = call i32 @zend_gc_addref(ptr noundef %12)
  ret i32 %13
}

; Function Attrs: inlinehint nounwind uwtable
define internal ptr @php_sqlite3_db_from_obj(ptr noundef %0) #2 {
  %2 = alloca ptr, align 8
  store ptr %0, ptr %2, align 8, !tbaa !67
  %3 = load ptr, ptr %2, align 8, !tbaa !67
  %4 = getelementptr inbounds i8, ptr %3, i64 -128
  ret ptr %4
}

; Function Attrs: inlinehint nounwind uwtable
define internal ptr @php_sqlite3_stmt_from_obj(ptr noundef %0) #2 {
  %2 = alloca ptr, align 8
  store ptr %0, ptr %2, align 8, !tbaa !67
  %3 = load ptr, ptr %2, align 8, !tbaa !67
  %4 = getelementptr inbounds i8, ptr %3, i64 -32
  ret ptr %4
}

; Function Attrs: nounwind uwtable
define hidden void @zim_SQLite3Stmt___construct(ptr noundef %0, ptr noundef %1) #0 {
  %3 = alloca ptr, align 8
  %4 = alloca ptr, align 8
  %5 = alloca ptr, align 8
  %6 = alloca ptr, align 8
  %7 = alloca ptr, align 8
  %8 = alloca ptr, align 8
  %9 = alloca ptr, align 8
  %10 = alloca i32, align 4
  %11 = alloca i32, align 4
  store ptr %0, ptr %3, align 8, !tbaa !4
  store ptr %1, ptr %4, align 8, !tbaa !9
  call void @llvm.lifetime.start.p0(i64 8, ptr %5) #15
  call void @llvm.lifetime.start.p0(i64 8, ptr %6) #15
  call void @llvm.lifetime.start.p0(i64 8, ptr %7) #15
  %12 = load ptr, ptr %3, align 8, !tbaa !4
  %13 = getelementptr inbounds nuw %struct._zend_execute_data, ptr %12, i32 0, i32 4
  store ptr %13, ptr %7, align 8, !tbaa !9
  call void @llvm.lifetime.start.p0(i64 8, ptr %8) #15
  call void @llvm.lifetime.start.p0(i64 8, ptr %9) #15
  call void @llvm.lifetime.start.p0(i64 4, ptr %10) #15
  %14 = load ptr, ptr %7, align 8, !tbaa !9
  %15 = getelementptr inbounds nuw %struct._zval_struct, ptr %14, i32 0, i32 0
  %16 = load ptr, ptr %15, align 8, !tbaa !13
  %17 = call ptr @php_sqlite3_stmt_from_obj(ptr noundef %16)
  store ptr %17, ptr %5, align 8, !tbaa !83
  %18 = load ptr, ptr %3, align 8, !tbaa !4
  %19 = getelementptr inbounds nuw %struct._zend_execute_data, ptr %18, i32 0, i32 4
  %20 = getelementptr inbounds nuw %struct._zval_struct, ptr %19, i32 0, i32 2
  %21 = load i32, ptr %20, align 4, !tbaa !13
  %22 = load ptr, ptr @php_sqlite3_sc_entry, align 8, !tbaa !61
  %23 = call i32 (i32, ptr, ...) @zend_parse_parameters(i32 noundef %21, ptr noundef @.str.41, ptr noundef %8, ptr noundef %22, ptr noundef %9)
  %24 = icmp eq i32 %23, -1
  br i1 %24, label %25, label %31

25:                                               ; preds = %2
  br label %26

26:                                               ; preds = %25
  %27 = load ptr, ptr getelementptr inbounds nuw (%struct._zend_executor_globals, ptr @executor_globals, i32 0, i32 54), align 8, !tbaa !16
  %28 = icmp ne ptr %27, null
  call void @llvm.assume(i1 %28)
  store i32 1, ptr %11, align 4
  br label %105

29:                                               ; No predecessors!
  br label %30

30:                                               ; preds = %29
  br label %31

31:                                               ; preds = %30, %2
  %32 = load ptr, ptr %8, align 8, !tbaa !9
  %33 = getelementptr inbounds nuw %struct._zval_struct, ptr %32, i32 0, i32 0
  %34 = load ptr, ptr %33, align 8, !tbaa !13
  %35 = call ptr @php_sqlite3_db_from_obj(ptr noundef %34)
  store ptr %35, ptr %6, align 8, !tbaa !14
  %36 = load ptr, ptr %6, align 8, !tbaa !14
  %37 = icmp ne ptr %36, null
  br i1 %37, label %38, label %43

38:                                               ; preds = %31
  %39 = load ptr, ptr %6, align 8, !tbaa !14
  %40 = getelementptr inbounds nuw %struct._php_sqlite3_db_object, ptr %39, i32 0, i32 0
  %41 = load i8, ptr %40, align 8, !tbaa !48, !range !59, !noundef !60
  %42 = trunc i8 %41 to i1
  br i1 %42, label %49, label %43

43:                                               ; preds = %38, %31
  call void (ptr, ptr, ...) @zend_throw_error(ptr noundef null, ptr noundef @.str.8)
  br label %44

44:                                               ; preds = %43
  %45 = load ptr, ptr getelementptr inbounds nuw (%struct._zend_executor_globals, ptr @executor_globals, i32 0, i32 54), align 8, !tbaa !16
  %46 = icmp ne ptr %45, null
  call void @llvm.assume(i1 %46)
  store i32 1, ptr %11, align 4
  br label %105

47:                                               ; No predecessors!
  br label %48

48:                                               ; preds = %47
  br label %49

49:                                               ; preds = %48, %38
  %50 = load ptr, ptr %9, align 8, !tbaa !76
  %51 = getelementptr inbounds nuw %struct._zend_string, ptr %50, i32 0, i32 2
  %52 = load i64, ptr %51, align 8, !tbaa !81
  %53 = icmp ne i64 %52, 0
  br i1 %53, label %63, label %54

54:                                               ; preds = %49
  br label %55

55:                                               ; preds = %54
  br label %56

56:                                               ; preds = %55
  %57 = load ptr, ptr %4, align 8, !tbaa !9
  %58 = getelementptr inbounds nuw %struct._zval_struct, ptr %57, i32 0, i32 1
  store i32 2, ptr %58, align 8, !tbaa !13
  br label %59

59:                                               ; preds = %56
  br label %60

60:                                               ; preds = %59
  store i32 1, ptr %11, align 4
  br label %105

61:                                               ; No predecessors!
  br label %62

62:                                               ; preds = %61
  br label %63

63:                                               ; preds = %62, %49
  %64 = load ptr, ptr %6, align 8, !tbaa !14
  %65 = load ptr, ptr %5, align 8, !tbaa !83
  %66 = getelementptr inbounds nuw %struct._php_sqlite3_stmt_object, ptr %65, i32 0, i32 1
  store ptr %64, ptr %66, align 8, !tbaa !85
  %67 = load ptr, ptr %8, align 8, !tbaa !9
  %68 = call i32 @zval_addref_p(ptr noundef %67)
  %69 = load ptr, ptr %6, align 8, !tbaa !14
  %70 = getelementptr inbounds nuw %struct._php_sqlite3_db_object, ptr %69, i32 0, i32 2
  %71 = load ptr, ptr %70, align 8, !tbaa !64
  %72 = load ptr, ptr %9, align 8, !tbaa !76
  %73 = getelementptr inbounds nuw %struct._zend_string, ptr %72, i32 0, i32 3
  %74 = getelementptr inbounds [1 x i8], ptr %73, i64 0, i64 0
  %75 = load ptr, ptr %9, align 8, !tbaa !76
  %76 = getelementptr inbounds nuw %struct._zend_string, ptr %75, i32 0, i32 2
  %77 = load i64, ptr %76, align 8, !tbaa !81
  %78 = trunc i64 %77 to i32
  %79 = load ptr, ptr %5, align 8, !tbaa !83
  %80 = getelementptr inbounds nuw %struct._php_sqlite3_stmt_object, ptr %79, i32 0, i32 0
  %81 = call i32 @sqlite3_prepare_v2(ptr noundef %71, ptr noundef %74, i32 noundef %78, ptr noundef %80, ptr noundef null)
  store i32 %81, ptr %10, align 4, !tbaa !63
  %82 = load i32, ptr %10, align 4, !tbaa !63
  %83 = icmp ne i32 %82, 0
  br i1 %83, label %84, label %100

84:                                               ; preds = %63
  %85 = load ptr, ptr %6, align 8, !tbaa !14
  %86 = load i32, ptr %10, align 4, !tbaa !63
  %87 = load ptr, ptr %6, align 8, !tbaa !14
  %88 = getelementptr inbounds nuw %struct._php_sqlite3_db_object, ptr %87, i32 0, i32 2
  %89 = load ptr, ptr %88, align 8, !tbaa !64
  %90 = call ptr @sqlite3_errmsg(ptr noundef %89)
  call void (ptr, i32, ptr, ...) @php_sqlite3_error(ptr noundef %85, i32 noundef %86, ptr noundef @.str.21, ptr noundef %90)
  %91 = load ptr, ptr %4, align 8, !tbaa !9
  call void @zval_ptr_dtor(ptr noundef %91)
  br label %92

92:                                               ; preds = %84
  br label %93

93:                                               ; preds = %92
  %94 = load ptr, ptr %4, align 8, !tbaa !9
  %95 = getelementptr inbounds nuw %struct._zval_struct, ptr %94, i32 0, i32 1
  store i32 2, ptr %95, align 8, !tbaa !13
  br label %96

96:                                               ; preds = %93
  br label %97

97:                                               ; preds = %96
  store i32 1, ptr %11, align 4
  br label %105

98:                                               ; No predecessors!
  br label %99

99:                                               ; preds = %98
  br label %100

100:                                              ; preds = %99, %63
  %101 = load ptr, ptr %5, align 8, !tbaa !83
  %102 = getelementptr inbounds nuw %struct._php_sqlite3_stmt_object, ptr %101, i32 0, i32 2
  store i8 1, ptr %102, align 8, !tbaa !88
  %103 = load ptr, ptr %6, align 8, !tbaa !14
  %104 = getelementptr inbounds nuw %struct._php_sqlite3_db_object, ptr %103, i32 0, i32 6
  call void @zend_llist_add_element(ptr noundef %104, ptr noundef %5)
  store i32 0, ptr %11, align 4
  br label %105

105:                                              ; preds = %100, %97, %60, %44, %26
  call void @llvm.lifetime.end.p0(i64 4, ptr %10) #15
  call void @llvm.lifetime.end.p0(i64 8, ptr %9) #15
  call void @llvm.lifetime.end.p0(i64 8, ptr %8) #15
  call void @llvm.lifetime.end.p0(i64 8, ptr %7) #15
  call void @llvm.lifetime.end.p0(i64 8, ptr %6) #15
  call void @llvm.lifetime.end.p0(i64 8, ptr %5) #15
  %106 = load i32, ptr %11, align 4
  switch i32 %106, label %108 [
    i32 0, label %107
    i32 1, label %107
  ]

107:                                              ; preds = %105, %105
  ret void

108:                                              ; preds = %105
  unreachable
}