; Function Attrs: nounwind uwtable
define hidden void @zim_SQLite3Stmt___construct(ptr noundef readonly captures(none) %0, ptr noundef %1) #0 {
  %3 = alloca ptr, align 8
  %4 = alloca ptr, align 8
  %5 = alloca ptr, align 8
  call void @llvm.lifetime.start.p0(i64 8, ptr nonnull %3) #17
  %6 = getelementptr inbounds nuw i8, ptr %0, i64 32
  call void @llvm.lifetime.start.p0(i64 8, ptr nonnull %4) #17
  call void @llvm.lifetime.start.p0(i64 8, ptr nonnull %5) #17
  %7 = load ptr, ptr %6, align 8, !tbaa !8
  %8 = getelementptr inbounds i8, ptr %7, i64 -32
  store ptr %8, ptr %3, align 8, !tbaa !82
  %9 = getelementptr inbounds nuw i8, ptr %0, i64 44
  %10 = load i32, ptr %9, align 4, !tbaa !8
  %11 = load ptr, ptr @php_sqlite3_sc_entry, align 8, !tbaa !57
  %12 = call i32 (i32, ptr, ...) @zend_parse_parameters(i32 noundef %10, ptr noundef nonnull @.str.41, ptr noundef nonnull %4, ptr noundef %11, ptr noundef nonnull %5) #17
  %13 = icmp eq i32 %12, -1
  br i1 %13, label %14, label %17

14:                                               ; preds = %2
  %15 = load ptr, ptr getelementptr inbounds nuw (i8, ptr @executor_globals, i64 960), align 8, !tbaa !9
  %16 = icmp ne ptr %15, null
  call void @llvm.assume(i1 %16)
  br label %52

17:                                               ; preds = %2
  %18 = load ptr, ptr %4, align 8, !tbaa !103
  %19 = load ptr, ptr %18, align 8, !tbaa !8
  %20 = getelementptr inbounds i8, ptr %19, i64 -128
  %21 = load i8, ptr %20, align 8, !tbaa !44, !range !55, !noundef !56
  %22 = trunc nuw i8 %21 to i1
  br i1 %22, label %26, label %23

23:                                               ; preds = %17
  call void (ptr, ptr, ...) @zend_throw_error(ptr noundef null, ptr noundef nonnull @.str.8) #17
  %24 = load ptr, ptr getelementptr inbounds nuw (i8, ptr @executor_globals, i64 960), align 8, !tbaa !9
  %25 = icmp ne ptr %24, null
  call void @llvm.assume(i1 %25)
  br label %52

26:                                               ; preds = %17
  %27 = load ptr, ptr %5, align 8, !tbaa !79
  %28 = getelementptr inbounds nuw i8, ptr %27, i64 16
  %29 = load i64, ptr %28, align 8, !tbaa !73
  %.not15 = icmp eq i64 %29, 0
  br i1 %.not15, label %30, label %32

30:                                               ; preds = %26
  %31 = getelementptr inbounds nuw i8, ptr %1, i64 8
  store i32 2, ptr %31, align 8, !tbaa !8
  br label %52

32:                                               ; preds = %26
  %33 = getelementptr inbounds i8, ptr %7, i64 -24
  store ptr %20, ptr %33, align 8, !tbaa !84
  %34 = getelementptr inbounds nuw i8, ptr %18, i64 9
  %35 = load i8, ptr %34, align 1, !tbaa !8
  %36 = icmp ne i8 %35, 0
  call void @llvm.assume(i1 %36)
  %37 = load ptr, ptr %18, align 8, !tbaa !8
  %38 = load i32, ptr %37, align 4, !tbaa !70
  %39 = add i32 %38, 1
  store i32 %39, ptr %37, align 4, !tbaa !70
  %40 = getelementptr inbounds i8, ptr %19, i64 -120
  %41 = load ptr, ptr %40, align 8, !tbaa !59
  %42 = getelementptr inbounds nuw i8, ptr %27, i64 24
  %43 = trunc i64 %29 to i32
  %44 = call i32 @sqlite3_prepare_v2(ptr noundef %41, ptr noundef nonnull %42, i32 noundef %43, ptr noundef nonnull %8, ptr noundef null) #17
  %.not16 = icmp eq i32 %44, 0
  br i1 %.not16, label %49, label %45

45:                                               ; preds = %32
  %46 = load ptr, ptr %40, align 8, !tbaa !59
  %47 = call ptr @sqlite3_errmsg(ptr noundef %46) #17
  call void (ptr, i32, ptr, ...) @php_sqlite3_error(ptr noundef nonnull %20, i32 noundef %44, ptr noundef nonnull @.str.21, ptr noundef %47)
  call void @zval_ptr_dtor(ptr noundef %1) #17
  %48 = getelementptr inbounds nuw i8, ptr %1, i64 8
  store i32 2, ptr %48, align 8, !tbaa !8
  br label %52

49:                                               ; preds = %32
  %50 = getelementptr inbounds i8, ptr %7, i64 -16
  store i8 1, ptr %50, align 8, !tbaa !88
  %51 = getelementptr inbounds i8, ptr %19, i64 -56
  call void @zend_llist_add_element(ptr noundef nonnull %51, ptr noundef nonnull %3) #17
  br label %52

52:                                               ; preds = %49, %45, %30, %23, %14
  call void @llvm.lifetime.end.p0(i64 8, ptr nonnull %5) #17
  call void @llvm.lifetime.end.p0(i64 8, ptr nonnull %4) #17
  call void @llvm.lifetime.end.p0(i64 8, ptr nonnull %3) #17
  ret void
}